target datalayout = "e-m:e-p270:32:32-p271:32:32-p272:64:64-i64:64-i128:128-f80:128-n8:16:32:64-S128"
target triple = "x86_64-pc-linux-gnu"

%struct.JSValue = type { %union.JSValueUnion, i64 }
%union.JSValueUnion = type { double }
%struct.JSRefCountHeader = type { i32 }

@environ = external global ptr, align 8

; Function Attrs: nounwind uwtable
define internal void @JS_FreeValue(ptr noundef %0, i64 %1, i64 %2) #0 {
  %4 = alloca %struct.JSValue, align 8
  %5 = alloca ptr, align 8
  %6 = alloca ptr, align 8
  %7 = getelementptr inbounds { i64, i64 }, ptr %4, i32 0, i32 0
  store i64 %1, ptr %7, align 8
  %8 = getelementptr inbounds { i64, i64 }, ptr %4, i32 0, i32 1
  store i64 %2, ptr %8, align 8
  store ptr %0, ptr %5, align 8
  %9 = getelementptr inbounds %struct.JSValue, ptr %4, i32 0, i32 1
  %10 = load i64, ptr %9, align 8
  %11 = trunc i64 %10 to i32
  %12 = icmp uge i32 %11, -11
  br i1 %12, label %13, label %28

13:                                               ; preds = %3
  %14 = getelementptr inbounds %struct.JSValue, ptr %4, i32 0, i32 0
  %15 = load ptr, ptr %14, align 8
  store ptr %15, ptr %6, align 8
  %16 = load ptr, ptr %6, align 8
  %17 = getelementptr inbounds %struct.JSRefCountHeader, ptr %16, i32 0, i32 0
  %18 = load i32, ptr %17, align 4
  %19 = add i32 %18, -1
  store i32 %19, ptr %17, align 4
  %20 = icmp sle i32 %19, 0
  br i1 %20, label %21, label %27

21:                                               ; preds = %13
  %22 = load ptr, ptr %5, align 8
  %23 = getelementptr inbounds { i64, i64 }, ptr %4, i32 0, i32 0
  %24 = load i64, ptr %23, align 8
  %25 = getelementptr inbounds { i64, i64 }, ptr %4, i32 0, i32 1
  %26 = load i64, ptr %25, align 8
  call void @__JS_FreeValue(ptr noundef %22, i64 %24, i64 %26)
  br label %27

27:                                               ; preds = %21, %13
  br label %28

28:                                               ; preds = %27, %3
  ret void
}

; Function Attrs: nounwind uwtable
define internal i32 @JS_IsException(i64 %0, i64 %1) #0 {
  %3 = alloca %struct.JSValue, align 8
  %4 = getelementptr inbounds { i64, i64 }, ptr %3, i32 0, i32 0
  store i64 %0, ptr %4, align 8
  %5 = getelementptr inbounds { i64, i64 }, ptr %3, i32 0, i32 1
  store i64 %1, ptr %5, align 8
  %6 = getelementptr inbounds %struct.JSValue, ptr %3, i32 0, i32 1
  %7 = load i64, ptr %6, align 8
  %8 = trunc i64 %7 to i32
  %9 = icmp eq i32 %8, 6
  %10 = xor i1 %9, true
  %11 = xor i1 %10, true
  %12 = zext i1 %11 to i32
  %13 = sext i32 %12 to i64
  %14 = trunc i64 %13 to i32
  ret i32 %14
}

; Function Attrs: nounwind uwtable
define internal { i64, i64 } @js_std_getenviron(ptr noundef %0, i64 %1, i64 %2, i32 noundef %3, ptr noundef %4) #0 {
  %6 = alloca %struct.JSValue, align 8
  %7 = alloca %struct.JSValue, align 8
  %8 = alloca ptr, align 8
  %9 = alloca i32, align 4
  %10 = alloca ptr, align 8
  %11 = alloca ptr, align 8
  %12 = alloca ptr, align 8
  %13 = alloca ptr, align 8
  %14 = alloca ptr, align 8
  %15 = alloca %struct.JSValue, align 8
  %16 = alloca i32, align 4
  %17 = alloca i64, align 8
  %18 = alloca i32, align 4
  %19 = alloca i32, align 4
  %20 = alloca %struct.JSValue, align 8
  %21 = alloca %struct.JSValue, align 8
  %22 = getelementptr inbounds { i64, i64 }, ptr %7, i32 0, i32 0
  store i64 %1, ptr %22, align 8
  %23 = getelementptr inbounds { i64, i64 }, ptr %7, i32 0, i32 1
  store i64 %2, ptr %23, align 8
  store ptr %0, ptr %8, align 8
  store i32 %3, ptr %9, align 4
  store ptr %4, ptr %10, align 8
  %24 = load ptr, ptr %8, align 8
  %25 = call { i64, i64 } @JS_NewObject(ptr noundef %24)
  %26 = getelementptr inbounds { i64, i64 }, ptr %20, i32 0, i32 0
  %27 = extractvalue { i64, i64 } %25, 0
  store i64 %27, ptr %26, align 8
  %28 = getelementptr inbounds { i64, i64 }, ptr %20, i32 0, i32 1
  %29 = extractvalue { i64, i64 } %25, 1
  store i64 %29, ptr %28, align 8
  call void @llvm.memcpy.p0.p0.i64(ptr align 8 %15, ptr align 8 %20, i64 16, i1 false)
  %30 = getelementptr inbounds { i64, i64 }, ptr %15, i32 0, i32 0
  %31 = load i64, ptr %30, align 8
  %32 = getelementptr inbounds { i64, i64 }, ptr %15, i32 0, i32 1
  %33 = load i64, ptr %32, align 8
  %34 = call i32 @JS_IsException(i64 %31, i64 %33)
  %35 = icmp ne i32 %34, 0
  br i1 %35, label %36, label %39

36:                                               ; preds = %5
  %37 = getelementptr inbounds %struct.JSValue, ptr %6, i32 0, i32 0
  store i32 0, ptr %37, align 8
  %38 = getelementptr inbounds %struct.JSValue, ptr %6, i32 0, i32 1
  store i64 6, ptr %38, align 8
  br label %111

39:                                               ; preds = %5
  %40 = load ptr, ptr @environ, align 8
  store ptr %40, ptr %11, align 8
  store i32 0, ptr %16, align 4
  br label %41

41:                                               ; preds = %99, %39
  %42 = load ptr, ptr %11, align 8
  %43 = load i32, ptr %16, align 4
  %44 = zext i32 %43 to i64
  %45 = getelementptr ptr, ptr %42, i64 %44
  %46 = load ptr, ptr %45, align 8
  %47 = icmp ne ptr %46, null
  br i1 %47, label %48, label %102

48:                                               ; preds = %41
  %49 = load ptr, ptr %11, align 8
  %50 = load i32, ptr %16, align 4
  %51 = zext i32 %50 to i64
  %52 = getelementptr ptr, ptr %49, i64 %51
  %53 = load ptr, ptr %52, align 8
  store ptr %53, ptr %12, align 8
  %54 = load ptr, ptr %12, align 8
  %55 = call ptr @strchr(ptr noundef %54, i32 noundef 61) #13
  store ptr %55, ptr %13, align 8
  %56 = load ptr, ptr %13, align 8
  %57 = load ptr, ptr %12, align 8
  %58 = ptrtoint ptr %56 to i64
  %59 = ptrtoint ptr %57 to i64
  %60 = sub i64 %58, %59
  store i64 %60, ptr %17, align 8
  %61 = load ptr, ptr %13, align 8
  %62 = icmp ne ptr %61, null
  br i1 %62, label %64, label %63

63:                                               ; preds = %48
  br label %99

64:                                               ; preds = %48
  %65 = load ptr, ptr %13, align 8
  %66 = getelementptr i8, ptr %65, i64 1
  store ptr %66, ptr %14, align 8
  %67 = load ptr, ptr %8, align 8
  %68 = load ptr, ptr %12, align 8
  %69 = load i64, ptr %17, align 8
  %70 = call i32 @JS_NewAtomLen(ptr noundef %67, ptr noundef %68, i64 noundef %69)
  store i32 %70, ptr %18, align 4
  %71 = load i32, ptr %18, align 4
  %72 = icmp eq i32 %71, 0
  br i1 %72, label %73, label %74

73:                                               ; preds = %64
  br label %103

74:                                               ; preds = %64
  %75 = load ptr, ptr %8, align 8
  %76 = load i32, ptr %18, align 4
  %77 = load ptr, ptr %8, align 8
  %78 = load ptr, ptr %14, align 8
  %79 = call { i64, i64 } @JS_NewString(ptr noundef %77, ptr noundef %78)
  %80 = getelementptr inbounds { i64, i64 }, ptr %21, i32 0, i32 0
  %81 = extractvalue { i64, i64 } %79, 0
  store i64 %81, ptr %80, align 8
  %82 = getelementptr inbounds { i64, i64 }, ptr %21, i32 0, i32 1
  %83 = extractvalue { i64, i64 } %79, 1
  store i64 %83, ptr %82, align 8
  %84 = getelementptr inbounds { i64, i64 }, ptr %15, i32 0, i32 0
  %85 = load i64, ptr %84, align 8
  %86 = getelementptr inbounds { i64, i64 }, ptr %15, i32 0, i32 1
  %87 = load i64, ptr %86, align 8
  %88 = getelementptr inbounds { i64, i64 }, ptr %21, i32 0, i32 0
  %89 = load i64, ptr %88, align 8
  %90 = getelementptr inbounds { i64, i64 }, ptr %21, i32 0, i32 1
  %91 = load i64, ptr %90, align 8
  %92 = call i32 @JS_DefinePropertyValue(ptr noundef %75, i64 %85, i64 %87, i32 noundef %76, i64 %89, i64 %91, i32 noundef 7)
  store i32 %92, ptr %19, align 4
  %93 = load ptr, ptr %8, align 8
  %94 = load i32, ptr %18, align 4
  call void @JS_FreeAtom(ptr noundef %93, i32 noundef %94)
  %95 = load i32, ptr %19, align 4
  %96 = icmp slt i32 %95, 0
  br i1 %96, label %97, label %98

97:                                               ; preds = %74
  br label %103

98:                                               ; preds = %74
  br label %99

99:                                               ; preds = %98, %63
  %100 = load i32, ptr %16, align 4
  %101 = add i32 %100, 1
  store i32 %101, ptr %16, align 4
  br label %41, !llvm.loop !21

102:                                              ; preds = %41
  call void @llvm.memcpy.p0.p0.i64(ptr align 8 %6, ptr align 8 %15, i64 16, i1 false)
  br label %111

103:                                              ; preds = %97, %73
  %104 = load ptr, ptr %8, align 8
  %105 = getelementptr inbounds { i64, i64 }, ptr %15, i32 0, i32 0
  %106 = load i64, ptr %105, align 8
  %107 = getelementptr inbounds { i64, i64 }, ptr %15, i32 0, i32 1
  %108 = load i64, ptr %107, align 8
  call void @JS_FreeValue(ptr noundef %104, i64 %106, i64 %108)
  %109 = getelementptr inbounds %struct.JSValue, ptr %6, i32 0, i32 0
  store i32 0, ptr %109, align 8
  %110 = getelementptr inbounds %struct.JSValue, ptr %6, i32 0, i32 1
  store i64 6, ptr %110, align 8
  br label %111

111:                                              ; preds = %103, %102, %36
  %112 = load { i64, i64 }, ptr %6, align 8
  ret { i64, i64 } %112
}