; Function Attrs: nounwind uwtable
define internal { i64, i64 } @js_std_getenviron(ptr noundef %0, i64 %1, i64 %2, i32 %3, ptr nocapture readnone %4) #0 {
  %6 = tail call { i64, i64 } @JS_NewObject(ptr noundef %0) #29
  %7 = extractvalue { i64, i64 } %6, 0
  %8 = extractvalue { i64, i64 } %6, 1
  %9 = and i64 %8, 4294967295
  %.not = icmp eq i64 %9, 6
  br i1 %.not, label %JS_FreeValue.exit, label %10

10:                                               ; preds = %5
  %11 = load ptr, ptr @environ, align 8
  %12 = load ptr, ptr %11, align 8
  %.not3638 = icmp eq ptr %12, null
  br i1 %.not3638, label %._crit_edge, label %.lr.ph

.lr.ph:                                           ; preds = %10, %28
  %13 = phi ptr [ %32, %28 ], [ %12, %10 ]
  %.039 = phi i32 [ %29, %28 ], [ 0, %10 ]
  %14 = tail call ptr @strchr(ptr noundef nonnull dereferenceable(1) %13, i32 noundef 61) #31
  %.not37 = icmp eq ptr %14, null
  br i1 %.not37, label %28, label %15

15:                                               ; preds = %.lr.ph
  %16 = ptrtoint ptr %14 to i64
  %17 = ptrtoint ptr %13 to i64
  %18 = sub i64 %16, %17
  %19 = tail call i32 @JS_NewAtomLen(ptr noundef %0, ptr noundef nonnull %13, i64 noundef %18) #29
  %20 = icmp eq i32 %19, 0
  br i1 %20, label %34, label %21

21:                                               ; preds = %15
  %22 = getelementptr i8, ptr %14, i64 1
  %23 = tail call { i64, i64 } @JS_NewString(ptr noundef %0, ptr noundef %22) #29
  %24 = extractvalue { i64, i64 } %23, 0
  %25 = extractvalue { i64, i64 } %23, 1
  %26 = tail call i32 @JS_DefinePropertyValue(ptr noundef %0, i64 %7, i64 %8, i32 noundef %19, i64 %24, i64 %25, i32 noundef 7) #29
  tail call void @JS_FreeAtom(ptr noundef %0, i32 noundef %19) #29
  %27 = icmp slt i32 %26, 0
  br i1 %27, label %34, label %28

28:                                               ; preds = %21, %.lr.ph
  %29 = add i32 %.039, 1
  %30 = zext i32 %29 to i64
  %31 = getelementptr ptr, ptr %11, i64 %30
  %32 = load ptr, ptr %31, align 8
  %.not36 = icmp eq ptr %32, null
  br i1 %.not36, label %._crit_edge, label %.lr.ph, !llvm.loop !24

._crit_edge:                                      ; preds = %28, %10
  %.sroa.4.0.extract.shift = and i64 %7, -4294967296
  %33 = and i64 %7, 4294967295
  br label %JS_FreeValue.exit

34:                                               ; preds = %21, %15
  %35 = trunc i64 %8 to i32
  %36 = icmp ugt i32 %35, -12
  br i1 %36, label %37, label %JS_FreeValue.exit

37:                                               ; preds = %34
  %38 = inttoptr i64 %7 to ptr
  %39 = load i32, ptr %38, align 4
  %40 = add i32 %39, -1
  store i32 %40, ptr %38, align 4
  %41 = icmp slt i32 %40, 1
  br i1 %41, label %42, label %JS_FreeValue.exit

42:                                               ; preds = %37
  tail call void @__JS_FreeValue(ptr noundef %0, i64 %7, i64 %8) #29
  br label %JS_FreeValue.exit

JS_FreeValue.exit:                                ; preds = %42, %37, %34, %5, %._crit_edge
  %.sroa.030.0 = phi i64 [ %33, %._crit_edge ], [ 0, %5 ], [ 0, %34 ], [ 0, %37 ], [ 0, %42 ]
  %.sroa.4.sroa.0.0 = phi i64 [ %.sroa.4.0.extract.shift, %._crit_edge ], [ 0, %5 ], [ 0, %34 ], [ 0, %37 ], [ 0, %42 ]
  %.sroa.4.sroa.2.0 = phi i64 [ %8, %._crit_edge ], [ 6, %5 ], [ 6, %34 ], [ 6, %37 ], [ 6, %42 ]
  %.sroa.030.0.insert.insert = or disjoint i64 %.sroa.4.sroa.0.0, %.sroa.030.0
  %.fca.0.insert = insertvalue { i64, i64 } poison, i64 %.sroa.030.0.insert.insert, 0
  %.fca.1.insert = insertvalue { i64, i64 } %.fca.0.insert, i64 %.sroa.4.sroa.2.0, 1
  ret { i64, i64 } %.fca.1.insert
}